; Function Attrs: mustprogress nounwind uwtable
define hidden void @_ZN14ZMemoryManagerC2Ev(ptr noundef nonnull align 8 dereferenceable(112) %0) unnamed_addr #0 align 2 {
  tail call void @_ZN13PlatformMutexC1Ev(ptr noundef nonnull align 8 dereferenceable(40) %0) #8
  %2 = getelementptr inbounds i8, ptr %0, i64 40
  store ptr %2, ptr %2, align 8
  %3 = getelementptr inbounds i8, ptr %0, i64 48
  store ptr %2, ptr %3, align 8
  %4 = getelementptr inbounds i8, ptr %0, i64 56
  tail call void @llvm.memset.p0.i64(ptr noundef nonnull align 8 dereferenceable(56) %4, i8 0, i64 56, i1 false)
  ret void
}